; Function Attrs: nounwind sspstrong uwtable
define internal range(i64 1, -7) i64 @ossl_bn_copy(i64 noundef returned %0, i64 noundef %1) #0 {
  %3 = alloca i64, align 8
  store i64 %1, ptr %3, align 8, !tbaa !6
  %4 = icmp eq i64 %0, 0
  %5 = and i64 %0, 7
  %6 = icmp ne i64 %5, 0
  %7 = or i1 %4, %6
  br i1 %7, label %RB_OBJ_FROZEN.exit.thread.i, label %RB_FL_ABLE.exit.i.i, !prof !18

RB_FL_ABLE.exit.i.i:                              ; preds = %2
  %8 = inttoptr i64 %0 to ptr
  %9 = load i64, ptr %8, align 8, !tbaa !15
  %10 = and i64 %9, 31
  %.not.i.i = icmp eq i64 %10, 27
  %11 = and i64 %9, 2048
  %12 = icmp ne i64 %11, 0
  %or.cond.i = or i1 %.not.i.i, %12
  br i1 %or.cond.i, label %RB_OBJ_FROZEN.exit.thread.i, label %rbimpl_RB_TYPE_P_fastpath.exit.i, !prof !19

RB_OBJ_FROZEN.exit.thread.i:                      ; preds = %RB_FL_ABLE.exit.i.i, %2
  tail call void @rb_error_frozen_object(i64 noundef %0) #12
  unreachable

rbimpl_RB_TYPE_P_fastpath.exit.i:                 ; preds = %RB_FL_ABLE.exit.i.i
  %13 = icmp ne i64 %10, 5
  %14 = and i64 %9, 49152
  %.not.i = icmp eq i64 %14, 0
  %or.cond8.i = or i1 %13, %.not.i
  br i1 %or.cond8.i, label %rb_check_frozen_inline.exit, label %15, !prof !20

15:                                               ; preds = %rbimpl_RB_TYPE_P_fastpath.exit.i
  tail call void @rb_str_modify(i64 noundef %0) #11
  br label %rb_check_frozen_inline.exit

rb_check_frozen_inline.exit:                      ; preds = %rbimpl_RB_TYPE_P_fastpath.exit.i, %15
  %16 = icmp eq i64 %0, %1
  br i1 %16, label %26, label %17

17:                                               ; preds = %rb_check_frozen_inline.exit
  %18 = tail call ptr @rb_check_typeddata(i64 noundef %0, ptr noundef nonnull @ossl_bn_type) #11
  %.not = icmp eq ptr %18, null
  br i1 %.not, label %19, label %21

19:                                               ; preds = %17
  %20 = load i64, ptr @rb_eRuntimeError, align 8, !tbaa !6
  tail call void (i64, ptr, ...) @ossl_raise(i64 noundef %20, ptr noundef nonnull @.str) #12
  unreachable

21:                                               ; preds = %17
  %22 = call ptr @ossl_bn_value_ptr(ptr noundef nonnull %3)
  %23 = call ptr @BN_copy(ptr noundef nonnull %18, ptr noundef nonnull %22) #11
  %.not9 = icmp eq ptr %23, null
  br i1 %.not9, label %24, label %26

24:                                               ; preds = %21
  %25 = load i64, ptr @eBNError, align 8, !tbaa !6
  call void (i64, ptr, ...) @ossl_raise(i64 noundef %25, ptr noundef null) #12
  unreachable

26:                                               ; preds = %21, %rb_check_frozen_inline.exit
  ret i64 %0
}